; Function Attrs: nofree norecurse nosync nounwind memory(read, inaccessiblemem: none) uwtable
define dso_local i32 @select_get_plugin_id_pos(i32 noundef %0) local_unnamed_addr #10 {
  %2 = load i32, ptr @select_context_cnt, align 4
  %.not9 = icmp sgt i32 %2, 0
  br i1 %.not9, label %.lr.ph, label %._crit_edge

.lr.ph:                                           ; preds = %1
  %3 = load ptr, ptr @ops, align 8
  %wide.trip.count = zext nneg i32 %2 to i64
  br label %4

4:                                                ; preds = %.lr.ph, %9
  %indvars.iv = phi i64 [ 0, %.lr.ph ], [ %indvars.iv.next, %9 ]
  %5 = getelementptr inbounds nuw %struct.slurm_select_ops_t, ptr %3, i64 %indvars.iv
  %6 = load ptr, ptr %5, align 8
  %7 = load i32, ptr %6, align 4
  %8 = icmp eq i32 %7, %0
  br i1 %8, label %._crit_edge.loopexit.split.loop.exit, label %9

9:                                                ; preds = %4
  %indvars.iv.next = add nuw nsw i64 %indvars.iv, 1
  %exitcond.not = icmp eq i64 %indvars.iv.next, %wide.trip.count
  br i1 %exitcond.not, label %._crit_edge, label %4, !llvm.loop !15

._crit_edge.loopexit.split.loop.exit:             ; preds = %4
  %10 = trunc nuw nsw i64 %indvars.iv to i32
  br label %._crit_edge

._crit_edge:                                      ; preds = %9, %._crit_edge.loopexit.split.loop.exit, %1
  %spec.select = phi i32 [ -1, %1 ], [ %10, %._crit_edge.loopexit.split.loop.exit ], [ -1, %9 ]
  ret i32 %spec.select
}